target datalayout = "e-m:e-p270:32:32-p271:32:32-p272:64:64-i64:64-i128:128-f80:128-n8:16:32:64-S128"
target triple = "x86_64-pc-linux-gnu"

%struct.ossl_param_st = type { ptr, i32, ptr, i64, i64 }

@lib_ctx = internal global ptr null, align 8
@.str.29 = private unnamed_addr constant [30 x i8] c"../openssl/test/ml_dsa_test.c\00", align 1
@.str.33 = private unnamed_addr constant [5 x i8] c"priv\00", align 1
@.str.35 = private unnamed_addr constant [4 x i8] c"pub\00", align 1
@.str.44 = private unnamed_addr constant [2 x i8] c"1\00", align 1
@.str.66 = private unnamed_addr constant [28 x i8] c"EVP_PKEY_fromdata_init(ctx)\00", align 1
@.str.74 = private unnamed_addr constant [10 x i8] c"ML-DSA-44\00", align 1
@.str.122 = private unnamed_addr constant [61 x i8] c"ctx = EVP_PKEY_CTX_new_from_name(lib_ctx, \22ML-DSA-44\22, NULL)\00", align 1
@.str.123 = private unnamed_addr constant [61 x i8] c"EVP_PKEY_fromdata_settable(ctx, OSSL_KEYMGMT_SELECT_KEYPAIR)\00", align 1
@.str.124 = private unnamed_addr constant [35 x i8] c"EVP_PKEY_fromdata_settable(ctx, 0)\00", align 1
@.str.125 = private unnamed_addr constant [71 x i8] c"EVP_PKEY_fromdata(ctx, &pkey, OSSL_KEYMGMT_SELECT_PRIVATE_KEY, params)\00", align 1
@.str.126 = private unnamed_addr constant [70 x i8] c"EVP_PKEY_fromdata(ctx, &pkey, OSSL_KEYMGMT_SELECT_PUBLIC_KEY, params)\00", align 1

; Function Attrs: nounwind uwtable
define internal i32 @from_data_bad_input_test() #0 {
  %1 = alloca i32, align 4
  %2 = alloca ptr, align 8
  %3 = alloca [2 x %struct.ossl_param_st], align 16
  %4 = alloca ptr, align 8
  %5 = alloca i32, align 4
  %6 = alloca %struct.ossl_param_st, align 8
  %7 = alloca %struct.ossl_param_st, align 8
  %8 = alloca %struct.ossl_param_st, align 8
  %9 = alloca %struct.ossl_param_st, align 8
  call void @llvm.lifetime.start.p0(i64 4, ptr %1) #4
  store i32 0, ptr %1, align 4, !tbaa !9
  call void @llvm.lifetime.start.p0(i64 8, ptr %2) #4
  store ptr null, ptr %2, align 8, !tbaa !29
  call void @llvm.lifetime.start.p0(i64 80, ptr %3) #4
  call void @llvm.lifetime.start.p0(i64 8, ptr %4) #4
  store ptr null, ptr %4, align 8, !tbaa !15
  call void @llvm.lifetime.start.p0(i64 4, ptr %5) #4
  store i32 0, ptr %5, align 4, !tbaa !9
  %10 = load ptr, ptr @lib_ctx, align 8, !tbaa !43
  %11 = call ptr @EVP_PKEY_CTX_new_from_name(ptr noundef %10, ptr noundef @.str.74, ptr noundef null)
  store ptr %11, ptr %2, align 8, !tbaa !29
  %12 = call i32 @test_ptr(ptr noundef @.str.29, i32 noundef 287, ptr noundef @.str.122, ptr noundef %11)
  %13 = icmp ne i32 %12, 0
  br i1 %13, label %14, label %29

14:                                               ; preds = %0
  %15 = load ptr, ptr %2, align 8, !tbaa !29
  %16 = call i32 @EVP_PKEY_fromdata_init(ptr noundef %15)
  %17 = call i32 @test_int_eq(ptr noundef @.str.29, i32 noundef 288, ptr noundef @.str.66, ptr noundef @.str.44, i32 noundef %16, i32 noundef 1)
  %18 = icmp ne i32 %17, 0
  br i1 %18, label %19, label %29

19:                                               ; preds = %14
  %20 = load ptr, ptr %2, align 8, !tbaa !29
  %21 = call ptr @EVP_PKEY_fromdata_settable(ptr noundef %20, i32 noundef 3)
  %22 = call i32 @test_ptr(ptr noundef @.str.29, i32 noundef 289, ptr noundef @.str.123, ptr noundef %21)
  %23 = icmp ne i32 %22, 0
  br i1 %23, label %24, label %29

24:                                               ; preds = %19
  %25 = load ptr, ptr %2, align 8, !tbaa !29
  %26 = call ptr @EVP_PKEY_fromdata_settable(ptr noundef %25, i32 noundef 0)
  %27 = call i32 @test_ptr_null(ptr noundef @.str.29, i32 noundef 290, ptr noundef @.str.124, ptr noundef %26)
  %28 = icmp ne i32 %27, 0
  br i1 %28, label %30, label %29

29:                                               ; preds = %24, %19, %14, %0
  br label %49

30:                                               ; preds = %24
  %31 = getelementptr inbounds [2 x %struct.ossl_param_st], ptr %3, i64 0, i64 0
  call void @llvm.lifetime.start.p0(i64 40, ptr %6) #4
  call void @OSSL_PARAM_construct_uint32(ptr dead_on_unwind writable sret(%struct.ossl_param_st) align 8 %6, ptr noundef @.str.33, ptr noundef %5)
  call void @llvm.memcpy.p0.p0.i64(ptr align 16 %31, ptr align 8 %6, i64 40, i1 false), !tbaa.struct !35
  call void @llvm.lifetime.end.p0(i64 40, ptr %6) #4
  %32 = getelementptr inbounds [2 x %struct.ossl_param_st], ptr %3, i64 0, i64 1
  call void @llvm.lifetime.start.p0(i64 40, ptr %7) #4
  call void @OSSL_PARAM_construct_end(ptr dead_on_unwind writable sret(%struct.ossl_param_st) align 8 %7)
  call void @llvm.memcpy.p0.p0.i64(ptr align 8 %32, ptr align 8 %7, i64 40, i1 false), !tbaa.struct !35
  call void @llvm.lifetime.end.p0(i64 40, ptr %7) #4
  %33 = load ptr, ptr %2, align 8, !tbaa !29
  %34 = getelementptr inbounds [2 x %struct.ossl_param_st], ptr %3, i64 0, i64 0
  %35 = call i32 @EVP_PKEY_fromdata(ptr noundef %33, ptr noundef %4, i32 noundef 1, ptr noundef %34)
  %36 = call i32 @test_int_ne(ptr noundef @.str.29, i32 noundef 296, ptr noundef @.str.125, ptr noundef @.str.44, i32 noundef %35, i32 noundef 1)
  %37 = icmp ne i32 %36, 0
  br i1 %37, label %39, label %38

38:                                               ; preds = %30
  br label %49

39:                                               ; preds = %30
  %40 = getelementptr inbounds [2 x %struct.ossl_param_st], ptr %3, i64 0, i64 0
  call void @llvm.lifetime.start.p0(i64 40, ptr %8) #4
  call void @OSSL_PARAM_construct_uint32(ptr dead_on_unwind writable sret(%struct.ossl_param_st) align 8 %8, ptr noundef @.str.35, ptr noundef %5)
  call void @llvm.memcpy.p0.p0.i64(ptr align 16 %40, ptr align 8 %8, i64 40, i1 false), !tbaa.struct !35
  call void @llvm.lifetime.end.p0(i64 40, ptr %8) #4
  %41 = getelementptr inbounds [2 x %struct.ossl_param_st], ptr %3, i64 0, i64 1
  call void @llvm.lifetime.start.p0(i64 40, ptr %9) #4
  call void @OSSL_PARAM_construct_end(ptr dead_on_unwind writable sret(%struct.ossl_param_st) align 8 %9)
  call void @llvm.memcpy.p0.p0.i64(ptr align 8 %41, ptr align 8 %9, i64 40, i1 false), !tbaa.struct !35
  call void @llvm.lifetime.end.p0(i64 40, ptr %9) #4
  %42 = load ptr, ptr %2, align 8, !tbaa !29
  %43 = getelementptr inbounds [2 x %struct.ossl_param_st], ptr %3, i64 0, i64 0
  %44 = call i32 @EVP_PKEY_fromdata(ptr noundef %42, ptr noundef %4, i32 noundef 2, ptr noundef %43)
  %45 = call i32 @test_int_ne(ptr noundef @.str.29, i32 noundef 301, ptr noundef @.str.126, ptr noundef @.str.44, i32 noundef %44, i32 noundef 1)
  %46 = icmp ne i32 %45, 0
  br i1 %46, label %48, label %47

47:                                               ; preds = %39
  br label %49

48:                                               ; preds = %39
  store i32 1, ptr %1, align 4, !tbaa !9
  br label %49

49:                                               ; preds = %48, %47, %38, %29
  %50 = load ptr, ptr %4, align 8, !tbaa !15
  call void @EVP_PKEY_free(ptr noundef %50)
  %51 = load ptr, ptr %2, align 8, !tbaa !29
  call void @EVP_PKEY_CTX_free(ptr noundef %51)
  %52 = load i32, ptr %1, align 4, !tbaa !9
  call void @llvm.lifetime.end.p0(i64 4, ptr %5) #4
  call void @llvm.lifetime.end.p0(i64 8, ptr %4) #4
  call void @llvm.lifetime.end.p0(i64 80, ptr %3) #4
  call void @llvm.lifetime.end.p0(i64 8, ptr %2) #4
  call void @llvm.lifetime.end.p0(i64 4, ptr %1) #4
  ret i32 %52
}