; Function Attrs: nounwind uwtable
define internal range(i32 0, 2) i32 @from_data_bad_input_test() #1 {
  %1 = alloca [2 x %struct.ossl_param_st], align 16
  %2 = alloca ptr, align 8
  %3 = alloca i32, align 4
  %4 = alloca %struct.ossl_param_st, align 8
  %5 = alloca %struct.ossl_param_st, align 8
  %6 = alloca %struct.ossl_param_st, align 8
  call void @llvm.lifetime.start.p0(i64 80, ptr nonnull %1) #5
  call void @llvm.lifetime.start.p0(i64 8, ptr nonnull %2) #5
  store ptr null, ptr %2, align 8, !tbaa !16
  call void @llvm.lifetime.start.p0(i64 4, ptr nonnull %3) #5
  store i32 0, ptr %3, align 4, !tbaa !18
  %7 = load ptr, ptr @lib_ctx, align 8, !tbaa !27
  %8 = tail call ptr @EVP_PKEY_CTX_new_from_name(ptr noundef %7, ptr noundef nonnull @.str.74, ptr noundef null) #5
  %9 = tail call i32 @test_ptr(ptr noundef nonnull @.str.29, i32 noundef 287, ptr noundef nonnull @.str.122, ptr noundef %8) #5
  %.not = icmp eq i32 %9, 0
  br i1 %.not, label %26, label %10

10:                                               ; preds = %0
  %11 = tail call i32 @EVP_PKEY_fromdata_init(ptr noundef %8) #5
  %12 = tail call i32 @test_int_eq(ptr noundef nonnull @.str.29, i32 noundef 288, ptr noundef nonnull @.str.66, ptr noundef nonnull @.str.44, i32 noundef %11, i32 noundef 1) #5
  %.not6 = icmp eq i32 %12, 0
  br i1 %.not6, label %26, label %13

13:                                               ; preds = %10
  %14 = tail call ptr @EVP_PKEY_fromdata_settable(ptr noundef %8, i32 noundef 3) #5
  %15 = tail call i32 @test_ptr(ptr noundef nonnull @.str.29, i32 noundef 289, ptr noundef nonnull @.str.123, ptr noundef %14) #5
  %.not7 = icmp eq i32 %15, 0
  br i1 %.not7, label %26, label %16

16:                                               ; preds = %13
  %17 = tail call ptr @EVP_PKEY_fromdata_settable(ptr noundef %8, i32 noundef 0) #5
  %18 = tail call i32 @test_ptr_null(ptr noundef nonnull @.str.29, i32 noundef 290, ptr noundef nonnull @.str.124, ptr noundef %17) #5
  %.not8 = icmp eq i32 %18, 0
  br i1 %.not8, label %26, label %19

19:                                               ; preds = %16
  call void @OSSL_PARAM_construct_uint32(ptr dead_on_unwind nonnull writable sret(%struct.ossl_param_st) align 8 %1, ptr noundef nonnull @.str.33, ptr noundef nonnull %3) #5
  %20 = getelementptr inbounds nuw i8, ptr %1, i64 40
  call void @llvm.lifetime.start.p0(i64 40, ptr nonnull %4) #5
  call void @OSSL_PARAM_construct_end(ptr dead_on_unwind nonnull writable sret(%struct.ossl_param_st) align 8 %4) #5
  call void @llvm.memcpy.p0.p0.i64(ptr noundef nonnull align 8 dereferenceable(40) %20, ptr noundef nonnull align 8 dereferenceable(40) %4, i64 40, i1 false), !tbaa.struct !20
  call void @llvm.lifetime.end.p0(i64 40, ptr nonnull %4) #5
  %21 = call i32 @EVP_PKEY_fromdata(ptr noundef %8, ptr noundef nonnull %2, i32 noundef 1, ptr noundef nonnull %1) #5
  %22 = call i32 @test_int_ne(ptr noundef nonnull @.str.29, i32 noundef 296, ptr noundef nonnull @.str.125, ptr noundef nonnull @.str.44, i32 noundef %21, i32 noundef 1) #5
  %.not9 = icmp eq i32 %22, 0
  br i1 %.not9, label %26, label %23

23:                                               ; preds = %19
  call void @llvm.lifetime.start.p0(i64 40, ptr nonnull %5) #5
  call void @OSSL_PARAM_construct_uint32(ptr dead_on_unwind nonnull writable sret(%struct.ossl_param_st) align 8 %5, ptr noundef nonnull @.str.35, ptr noundef nonnull %3) #5
  call void @llvm.memcpy.p0.p0.i64(ptr noundef nonnull align 16 dereferenceable(40) %1, ptr noundef nonnull align 8 dereferenceable(40) %5, i64 40, i1 false), !tbaa.struct !20
  call void @llvm.lifetime.end.p0(i64 40, ptr nonnull %5) #5
  call void @llvm.lifetime.start.p0(i64 40, ptr nonnull %6) #5
  call void @OSSL_PARAM_construct_end(ptr dead_on_unwind nonnull writable sret(%struct.ossl_param_st) align 8 %6) #5
  call void @llvm.memcpy.p0.p0.i64(ptr noundef nonnull align 8 dereferenceable(40) %20, ptr noundef nonnull align 8 dereferenceable(40) %6, i64 40, i1 false), !tbaa.struct !20
  call void @llvm.lifetime.end.p0(i64 40, ptr nonnull %6) #5
  %24 = call i32 @EVP_PKEY_fromdata(ptr noundef %8, ptr noundef nonnull %2, i32 noundef 2, ptr noundef nonnull %1) #5
  %25 = call i32 @test_int_ne(ptr noundef nonnull @.str.29, i32 noundef 301, ptr noundef nonnull @.str.126, ptr noundef nonnull @.str.44, i32 noundef %24, i32 noundef 1) #5
  %.not10 = icmp ne i32 %25, 0
  %spec.select = zext i1 %.not10 to i32
  br label %26

26:                                               ; preds = %23, %19, %0, %10, %13, %16
  %.0 = phi i32 [ 0, %19 ], [ 0, %16 ], [ 0, %13 ], [ 0, %10 ], [ 0, %0 ], [ %spec.select, %23 ]
  %27 = load ptr, ptr %2, align 8, !tbaa !16
  call void @EVP_PKEY_free(ptr noundef %27) #5
  call void @EVP_PKEY_CTX_free(ptr noundef %8) #5
  call void @llvm.lifetime.end.p0(i64 4, ptr nonnull %3) #5
  call void @llvm.lifetime.end.p0(i64 8, ptr nonnull %2) #5
  call void @llvm.lifetime.end.p0(i64 80, ptr nonnull %1) #5
  ret i32 %.0
}